; Function Attrs: mustprogress uwtable
define hidden noundef zeroext i1 @_ZNK3sat6solver13is_assumptionENS_7literalE(ptr nocapture noundef nonnull readonly align 8 dereferenceable(4408) %this, i32 %l.coerce) local_unnamed_addr #3 align 2 {
entry:
  %m_assumptions.i = getelementptr inbounds i8, ptr %this, i64 4072
  %0 = load ptr, ptr %m_assumptions.i, align 8
  %cmp.i.i = icmp eq ptr %0, null
  br i1 %cmp.i.i, label %lor.lhs.false.i, label %_ZNK6vectorIN3sat7literalELb0EjE5emptyEv.exit.i

_ZNK6vectorIN3sat7literalELb0EjE5emptyEv.exit.i:  ; preds = %entry
  %arrayidx.i.i = getelementptr inbounds i8, ptr %0, i64 -4
  %1 = load i32, ptr %arrayidx.i.i, align 4
  %cmp3.i.i = icmp eq i32 %1, 0
  br i1 %cmp3.i.i, label %lor.lhs.false.i, label %land.rhs

lor.lhs.false.i:                                  ; preds = %_ZNK6vectorIN3sat7literalELb0EjE5emptyEv.exit.i, %entry
  %m_user_scope_literals.i = getelementptr inbounds i8, ptr %this, i64 4344
  %2 = load ptr, ptr %m_user_scope_literals.i, align 8
  %cmp.i1.i = icmp eq ptr %2, null
  br i1 %cmp.i1.i, label %lor.rhs.i, label %_ZNK6vectorIN3sat7literalELb0EjE5emptyEv.exit5.i

_ZNK6vectorIN3sat7literalELb0EjE5emptyEv.exit5.i: ; preds = %lor.lhs.false.i
  %arrayidx.i3.i = getelementptr inbounds i8, ptr %2, i64 -4
  %3 = load i32, ptr %arrayidx.i3.i, align 4
  %cmp3.i4.i = icmp eq i32 %3, 0
  br i1 %cmp3.i4.i, label %lor.rhs.i, label %land.rhs

lor.rhs.i:                                        ; preds = %_ZNK6vectorIN3sat7literalELb0EjE5emptyEv.exit5.i, %lor.lhs.false.i
  %m_ext.i = getelementptr inbounds i8, ptr %this, i64 528
  %4 = load ptr, ptr %m_ext.i, align 8
  %cmp.i6.not.i = icmp eq ptr %4, null
  br i1 %cmp.i6.not.i, label %land.end, label %_ZNK3sat6solver20tracking_assumptionsEv.exit

_ZNK3sat6solver20tracking_assumptionsEv.exit:     ; preds = %lor.rhs.i
  %vtable.i = load ptr, ptr %4, align 8
  %vfn.i = getelementptr inbounds i8, ptr %vtable.i, i64 344
  %5 = load ptr, ptr %vfn.i, align 8
  %call6.i = tail call noundef zeroext i1 %5(ptr noundef nonnull align 8 dereferenceable(32) %4)
  br i1 %call6.i, label %land.rhs, label %land.end

land.rhs:                                         ; preds = %_ZNK6vectorIN3sat7literalELb0EjE5emptyEv.exit.i, %_ZNK6vectorIN3sat7literalELb0EjE5emptyEv.exit5.i, %_ZNK3sat6solver20tracking_assumptionsEv.exit
  %m_assumption_set = getelementptr inbounds i8, ptr %this, i64 4080
  %6 = load ptr, ptr %m_assumption_set, align 8
  %cmp.i.i.i = icmp eq ptr %6, null
  br i1 %cmp.i.i.i, label %lor.rhs, label %_ZNK6vectorIcLb0EjE4sizeEv.exit.i.i

_ZNK6vectorIcLb0EjE4sizeEv.exit.i.i:              ; preds = %land.rhs
  %arrayidx.i.i.i = getelementptr inbounds i8, ptr %6, i64 -4
  %7 = load i32, ptr %arrayidx.i.i.i, align 4
  %cmp.i.i2 = icmp ugt i32 %7, %l.coerce
  br i1 %cmp.i.i2, label %_ZNK3sat11literal_set8containsENS_7literalE.exit, label %lor.rhs

_ZNK3sat11literal_set8containsENS_7literalE.exit: ; preds = %_ZNK6vectorIcLb0EjE4sizeEv.exit.i.i
  %idxprom.i.i.i = zext i32 %l.coerce to i64
  %arrayidx.i2.i.i = getelementptr inbounds i8, ptr %6, i64 %idxprom.i.i.i
  %8 = load i8, ptr %arrayidx.i2.i.i, align 1
  %cmp4.i.i.not = icmp eq i8 %8, 0
  br i1 %cmp4.i.i.not, label %lor.rhs, label %land.end

lor.rhs:                                          ; preds = %land.rhs, %_ZNK6vectorIcLb0EjE4sizeEv.exit.i.i, %_ZNK3sat11literal_set8containsENS_7literalE.exit
  %m_ext_assumption_set = getelementptr inbounds i8, ptr %this, i64 4096
  %9 = load ptr, ptr %m_ext_assumption_set, align 8
  %cmp.i.i.i3 = icmp eq ptr %9, null
  br i1 %cmp.i.i.i3, label %land.end, label %_ZNK6vectorIcLb0EjE4sizeEv.exit.i.i4

_ZNK6vectorIcLb0EjE4sizeEv.exit.i.i4:             ; preds = %lor.rhs
  %arrayidx.i.i.i5 = getelementptr inbounds i8, ptr %9, i64 -4
  %10 = load i32, ptr %arrayidx.i.i.i5, align 4
  %cmp.i.i6 = icmp ugt i32 %10, %l.coerce
  br i1 %cmp.i.i6, label %land.rhs.i.i7, label %land.end

land.rhs.i.i7:                                    ; preds = %_ZNK6vectorIcLb0EjE4sizeEv.exit.i.i4
  %idxprom.i.i.i8 = zext i32 %l.coerce to i64
  %arrayidx.i2.i.i9 = getelementptr inbounds i8, ptr %9, i64 %idxprom.i.i.i8
  %11 = load i8, ptr %arrayidx.i2.i.i9, align 1
  %cmp4.i.i10 = icmp ne i8 %11, 0
  br label %land.end

land.end:                                         ; preds = %lor.rhs.i, %land.rhs.i.i7, %_ZNK6vectorIcLb0EjE4sizeEv.exit.i.i4, %lor.rhs, %_ZNK3sat11literal_set8containsENS_7literalE.exit, %_ZNK3sat6solver20tracking_assumptionsEv.exit
  %12 = phi i1 [ false, %_ZNK3sat6solver20tracking_assumptionsEv.exit ], [ true, %_ZNK3sat11literal_set8containsENS_7literalE.exit ], [ false, %_ZNK6vectorIcLb0EjE4sizeEv.exit.i.i4 ], [ %cmp4.i.i10, %land.rhs.i.i7 ], [ false, %lor.rhs ], [ false, %lor.rhs.i ]
  ret i1 %12
}